; Function Attrs: nounwind uwtable
define ptr @l___private_Std_Sync_Channel_0__Std_CloseableChannel_Bounded_recv___rarg(ptr noundef %0, ptr noundef %1) #1 {
  %3 = ptrtoint ptr %0 to i64
  %4 = and i64 %3, 1
  %.not = icmp eq i64 %4, 0
  br i1 %.not, label %5, label %lean_inc.exit

5:                                                ; preds = %2
  %.val.i = load i32, ptr %0, align 4, !tbaa !4
  %6 = icmp sgt i32 %.val.i, 0
  br i1 %6, label %7, label %9, !prof !9

7:                                                ; preds = %5
  %8 = add nuw i32 %.val.i, 1
  store i32 %8, ptr %0, align 4, !tbaa !4
  br label %lean_inc.exit

9:                                                ; preds = %5
  %.not.i = icmp eq i32 %.val.i, 0
  br i1 %.not.i, label %lean_inc.exit, label %10

10:                                               ; preds = %9
  tail call void @lean_inc_ref_cold(ptr noundef nonnull %0) #7
  br label %lean_inc.exit

lean_inc.exit:                                    ; preds = %10, %9, %7, %2
  tail call void @lean_inc_heartbeat() #7
  %11 = tail call noalias ptr @mi_malloc_small(i64 noundef 32) #7
  %12 = icmp eq ptr %11, null
  br i1 %12, label %13, label %lean_alloc_closure.exit

13:                                               ; preds = %lean_inc.exit
  tail call void @lean_internal_panic_out_of_memory() #8
  unreachable

lean_alloc_closure.exit:                          ; preds = %lean_inc.exit
  %14 = getelementptr inbounds nuw i8, ptr %11, i64 4
  store i32 1, ptr %11, align 4, !tbaa !4
  store i32 -184549344, ptr %14, align 4
  %15 = getelementptr inbounds nuw i8, ptr %11, i64 8
  store ptr @l___private_Std_Sync_Channel_0__Std_CloseableChannel_Bounded_recv___rarg___lambda__2___boxed, ptr %15, align 8, !tbaa !10
  %16 = getelementptr inbounds nuw i8, ptr %11, i64 16
  store i16 4, ptr %16, align 8, !tbaa !12
  %17 = getelementptr inbounds nuw i8, ptr %11, i64 18
  store i16 1, ptr %17, align 2, !tbaa !12
  %18 = getelementptr inbounds nuw i8, ptr %11, i64 24
  store ptr %0, ptr %18, align 8, !tbaa !10
  tail call void @lean_inc_heartbeat() #7
  %19 = tail call noalias ptr @mi_malloc_small(i64 noundef 24) #7
  %20 = icmp eq ptr %19, null
  br i1 %20, label %21, label %lean_alloc_closure.exit11

21:                                               ; preds = %lean_alloc_closure.exit
  tail call void @lean_internal_panic_out_of_memory() #8
  unreachable

lean_alloc_closure.exit11:                        ; preds = %lean_alloc_closure.exit
  %22 = getelementptr inbounds nuw i8, ptr %19, i64 4
  store i32 1, ptr %19, align 4, !tbaa !4
  store i32 -184549352, ptr %22, align 4
  %23 = getelementptr inbounds nuw i8, ptr %19, i64 8
  store ptr @l___private_Std_Sync_Channel_0__Std_CloseableChannel_Bounded_tryRecv_x27___at___private_Std_Sync_Channel_0__Std_CloseableChannel_Bounded_recv___spec__1___rarg___boxed, ptr %23, align 8, !tbaa !10
  %24 = getelementptr inbounds nuw i8, ptr %19, i64 16
  store i16 2, ptr %24, align 8, !tbaa !12
  %25 = getelementptr inbounds nuw i8, ptr %19, i64 18
  store i16 0, ptr %25, align 2, !tbaa !12
  tail call void @lean_inc_heartbeat() #7
  %26 = tail call noalias ptr @mi_malloc_small(i64 noundef 40) #7
  %27 = icmp eq ptr %26, null
  br i1 %27, label %28, label %lean_alloc_closure.exit12

28:                                               ; preds = %lean_alloc_closure.exit11
  tail call void @lean_internal_panic_out_of_memory() #8
  unreachable

lean_alloc_closure.exit12:                        ; preds = %lean_alloc_closure.exit11
  %29 = getelementptr inbounds nuw i8, ptr %26, i64 4
  store i32 1, ptr %26, align 4, !tbaa !4
  store i32 -184549336, ptr %29, align 4
  %30 = getelementptr inbounds nuw i8, ptr %26, i64 8
  store ptr @l_ReaderT_bind___at___private_Std_Sync_Channel_0__Std_CloseableChannel_Bounded_recv___spec__2___rarg, ptr %30, align 8, !tbaa !10
  %31 = getelementptr inbounds nuw i8, ptr %26, i64 16
  store i16 4, ptr %31, align 8, !tbaa !12
  %32 = getelementptr inbounds nuw i8, ptr %26, i64 18
  store i16 2, ptr %32, align 2, !tbaa !12
  %33 = getelementptr inbounds nuw i8, ptr %26, i64 24
  store ptr %19, ptr %33, align 8, !tbaa !10
  %34 = getelementptr inbounds nuw i8, ptr %26, i64 32
  store ptr %11, ptr %34, align 8, !tbaa !10
  %35 = tail call ptr @l_Std_Mutex_atomically___at___private_Std_Sync_Channel_0__Std_CloseableChannel_Bounded_recv___spec__3___rarg(ptr noundef %0, ptr noundef nonnull %26, ptr noundef %1)
  ret ptr %35
}